target datalayout = "e-m:e-p270:32:32-p271:32:32-p272:64:64-i64:64-i128:128-f80:128-n8:16:32:64-S128"
target triple = "x86_64-pc-linux-gnu"

@.str.38 = private unnamed_addr constant [52 x i8] c"'setfenv' cannot change environment of given object\00", align 1

; Function Attrs: mustprogress uwtable
define internal noundef i32 @_ZL12luaB_setfenvP9lua_State(ptr noundef %0) #0 {
  %2 = alloca i32, align 4
  %3 = alloca ptr, align 8
  store ptr %0, ptr %3, align 8
  %4 = load ptr, ptr %3, align 8
  call void @_Z14luaL_checktypeP9lua_Stateii(ptr noundef %4, i32 noundef 2, i32 noundef 6)
  %5 = load ptr, ptr %3, align 8
  call void @_ZL7getfuncP9lua_Statei(ptr noundef %5, i32 noundef 0)
  %6 = load ptr, ptr %3, align 8
  call void @_Z13lua_pushvalueP9lua_Statei(ptr noundef %6, i32 noundef 2)
  %7 = load ptr, ptr %3, align 8
  call void @_Z14lua_setsafeenvP9lua_Stateii(ptr noundef %7, i32 noundef -1, i32 noundef 0)
  %8 = load ptr, ptr %3, align 8
  %9 = call noundef i32 @_Z12lua_isnumberP9lua_Statei(ptr noundef %8, i32 noundef 1)
  %10 = icmp ne i32 %9, 0
  br i1 %10, label %11, label %21

11:                                               ; preds = %1
  %12 = load ptr, ptr %3, align 8
  %13 = call noundef double @_Z13lua_tonumberxP9lua_StateiPi(ptr noundef %12, i32 noundef 1, ptr noundef null)
  %14 = fcmp oeq double %13, 0.000000e+00
  br i1 %14, label %15, label %21

15:                                               ; preds = %11
  %16 = load ptr, ptr %3, align 8
  %17 = call noundef i32 @_Z14lua_pushthreadP9lua_State(ptr noundef %16)
  %18 = load ptr, ptr %3, align 8
  call void @_Z10lua_insertP9lua_Statei(ptr noundef %18, i32 noundef -2)
  %19 = load ptr, ptr %3, align 8
  %20 = call noundef i32 @_Z11lua_setfenvP9lua_Statei(ptr noundef %19, i32 noundef -2)
  store i32 0, ptr %2, align 4
  br label %33

21:                                               ; preds = %11, %1
  %22 = load ptr, ptr %3, align 8
  %23 = call noundef i32 @_Z15lua_iscfunctionP9lua_Statei(ptr noundef %22, i32 noundef -2)
  %24 = icmp ne i32 %23, 0
  br i1 %24, label %29, label %25

25:                                               ; preds = %21
  %26 = load ptr, ptr %3, align 8
  %27 = call noundef i32 @_Z11lua_setfenvP9lua_Statei(ptr noundef %26, i32 noundef -2)
  %28 = icmp eq i32 %27, 0
  br i1 %28, label %29, label %31

29:                                               ; preds = %25, %21
  %30 = load ptr, ptr %3, align 8
  call void (ptr, ptr, ...) @_Z11luaL_errorLP9lua_StatePKcz(ptr noundef %30, ptr noundef @.str.38) #5
  unreachable

31:                                               ; preds = %25
  br label %32

32:                                               ; preds = %31
  store i32 1, ptr %2, align 4
  br label %33

33:                                               ; preds = %32, %15
  %34 = load i32, ptr %2, align 4
  ret i32 %34
}