; Function Attrs: mustprogress uwtable
define internal noundef range(i32 0, 2) i32 @_ZL12luaB_setfenvP9lua_State(ptr noundef %0) #0 {
  tail call void @_Z14luaL_checktypeP9lua_Stateii(ptr noundef %0, i32 noundef 2, i32 noundef 6)
  tail call fastcc void @_ZL7getfuncP9lua_Statei(ptr noundef %0, i32 noundef 0)
  tail call void @_Z13lua_pushvalueP9lua_Statei(ptr noundef %0, i32 noundef 2)
  tail call void @_Z14lua_setsafeenvP9lua_Stateii(ptr noundef %0, i32 noundef -1, i32 noundef 0)
  %2 = tail call noundef i32 @_Z12lua_isnumberP9lua_Statei(ptr noundef %0, i32 noundef 1)
  %.not = icmp eq i32 %2, 0
  br i1 %.not, label %9, label %3

3:                                                ; preds = %1
  %4 = tail call noundef double @_Z13lua_tonumberxP9lua_StateiPi(ptr noundef %0, i32 noundef 1, ptr noundef null)
  %5 = fcmp oeq double %4, 0.000000e+00
  br i1 %5, label %6, label %9

6:                                                ; preds = %3
  %7 = tail call noundef i32 @_Z14lua_pushthreadP9lua_State(ptr noundef %0)
  tail call void @_Z10lua_insertP9lua_Statei(ptr noundef %0, i32 noundef -2)
  %8 = tail call noundef i32 @_Z11lua_setfenvP9lua_Statei(ptr noundef %0, i32 noundef -2)
  br label %15

9:                                                ; preds = %3, %1
  %10 = tail call noundef i32 @_Z15lua_iscfunctionP9lua_Statei(ptr noundef %0, i32 noundef -2)
  %.not12 = icmp eq i32 %10, 0
  br i1 %.not12, label %11, label %14

11:                                               ; preds = %9
  %12 = tail call noundef i32 @_Z11lua_setfenvP9lua_Statei(ptr noundef %0, i32 noundef -2)
  %13 = icmp eq i32 %12, 0
  br i1 %13, label %14, label %15

14:                                               ; preds = %11, %9
  tail call void (ptr, ptr, ...) @_Z11luaL_errorLP9lua_StatePKcz(ptr noundef %0, ptr noundef nonnull @.str.38) #9
  unreachable

15:                                               ; preds = %11, %6
  %.0 = phi i32 [ 0, %6 ], [ 1, %11 ]
  ret i32 %.0
}